target datalayout = "e-m:e-p270:32:32-p271:32:32-p272:64:64-i64:64-i128:128-f80:128-n8:16:32:64-S128"
target triple = "x86_64-pc-linux-gnu"

%struct.vp56_context = type { ptr, %struct.H264ChromaContext, %struct.HpelDSPContext, %struct.VideoDSPContext, %struct.VP3DSPContext, %struct.VP56DSPContext, [64 x i8], [4 x ptr], ptr, ptr, %struct.VPXRangeCoder, %struct.VPXRangeCoder, ptr, i32, i32, [4 x i32], [4 x i32], i32, i32, [6 x i32], i32, i16, i16, ptr, [4 x %struct.VP56RefDc], [6 x i32], [3 x [3 x i16]], i32, ptr, [8 x i8], [6 x [64 x i16]], [6 x i32], ptr, [6 x %struct.VP56mv], [2 x %struct.VP56mv], i32, i32, i32, i32, i32, i32, i32, [4 x i8], [256 x i32], [4 x [64 x i8]], [4 x i8], i32, i32, i32, i32, i32, i32, i32, [4 x i64], ptr, ptr, ptr, ptr, ptr, ptr, ptr, ptr, ptr, ptr, %struct.VP56Model, i32, %struct.GetBitContext, [2 x %struct.VLC], [2 x %struct.VLC], [2 x [3 x [4 x %struct.VLC]]], [2 x [2 x i32]], i32, i32 }
%struct.H264ChromaContext = type { [4 x ptr], [4 x ptr] }
%struct.HpelDSPContext = type { [4 x [4 x ptr]], [4 x [4 x ptr]], [4 x [4 x ptr]], [4 x ptr] }
%struct.VideoDSPContext = type { ptr, ptr }
%struct.VP3DSPContext = type { ptr, ptr, ptr, ptr, ptr, ptr, ptr, ptr }
%struct.VP56DSPContext = type { ptr, ptr, ptr }
%struct.VPXRangeCoder = type { i32, i32, ptr, ptr, i32, i32 }
%struct.VP56RefDc = type { i8, i32, i16 }
%struct.VP56mv = type { i16, i16 }
%struct.VP56Model = type { [64 x i8], [64 x i8], [64 x i8], [2 x i8], [2 x i8], [2 x [2 x i8]], [2 x [7 x i8]], [2 x [8 x i8]], [2 x [11 x i8]], [2 x [3 x [6 x [11 x i8]]]], [2 x [3 x [3 x [6 x [5 x i8]]]]], [2 x [36 x [5 x i8]]], [2 x [14 x i8]], [3 x [10 x [10 x i8]]], [3 x [10 x [2 x i8]]] }
%struct.GetBitContext = type { ptr, ptr, i32, i32, i32 }
%struct.VLC = type { i32, ptr, i32, i32 }

; Function Attrs: cold nounwind optsize uwtable
define internal void @vp6_decode_free_context(ptr noundef %0) #0 {
  %2 = alloca ptr, align 8
  %3 = alloca i32, align 4
  %4 = alloca i32, align 4
  %5 = alloca i32, align 4
  %6 = alloca i32, align 4
  store ptr %0, ptr %2, align 8, !tbaa !29
  %7 = load ptr, ptr %2, align 8, !tbaa !29
  %8 = call i32 @ff_vp56_free_context(ptr noundef %7)
  call void @llvm.lifetime.start.p0(i64 4, ptr %3) #9
  store i32 0, ptr %3, align 4, !tbaa !32
  br label %9

9:                                                ; preds = %53, %1
  %10 = load i32, ptr %3, align 4, !tbaa !32
  %11 = icmp slt i32 %10, 2
  br i1 %11, label %13, label %12

12:                                               ; preds = %9
  store i32 2, ptr %4, align 4
  call void @llvm.lifetime.end.p0(i64 4, ptr %3) #9
  br label %56

13:                                               ; preds = %9
  %14 = load ptr, ptr %2, align 8, !tbaa !29
  %15 = getelementptr inbounds nuw %struct.vp56_context, ptr %14, i32 0, i32 67
  %16 = load i32, ptr %3, align 4, !tbaa !32
  %17 = sext i32 %16 to i64
  %18 = getelementptr inbounds [2 x %struct.VLC], ptr %15, i64 0, i64 %17
  call void @ff_vlc_free(ptr noundef %18)
  %19 = load ptr, ptr %2, align 8, !tbaa !29
  %20 = getelementptr inbounds nuw %struct.vp56_context, ptr %19, i32 0, i32 68
  %21 = load i32, ptr %3, align 4, !tbaa !32
  %22 = sext i32 %21 to i64
  %23 = getelementptr inbounds [2 x %struct.VLC], ptr %20, i64 0, i64 %22
  call void @ff_vlc_free(ptr noundef %23)
  call void @llvm.lifetime.start.p0(i64 4, ptr %5) #9
  store i32 0, ptr %5, align 4, !tbaa !32
  br label %24

24:                                               ; preds = %49, %13
  %25 = load i32, ptr %5, align 4, !tbaa !32
  %26 = icmp slt i32 %25, 3
  br i1 %26, label %28, label %27

27:                                               ; preds = %24
  store i32 5, ptr %4, align 4
  call void @llvm.lifetime.end.p0(i64 4, ptr %5) #9
  br label %52

28:                                               ; preds = %24
  call void @llvm.lifetime.start.p0(i64 4, ptr %6) #9
  store i32 0, ptr %6, align 4, !tbaa !32
  br label %29

29:                                               ; preds = %45, %28
  %30 = load i32, ptr %6, align 4, !tbaa !32
  %31 = icmp slt i32 %30, 4
  br i1 %31, label %33, label %32

32:                                               ; preds = %29
  store i32 8, ptr %4, align 4
  call void @llvm.lifetime.end.p0(i64 4, ptr %6) #9
  br label %48

33:                                               ; preds = %29
  %34 = load ptr, ptr %2, align 8, !tbaa !29
  %35 = getelementptr inbounds nuw %struct.vp56_context, ptr %34, i32 0, i32 69
  %36 = load i32, ptr %3, align 4, !tbaa !32
  %37 = sext i32 %36 to i64
  %38 = getelementptr inbounds [2 x [3 x [4 x %struct.VLC]]], ptr %35, i64 0, i64 %37
  %39 = load i32, ptr %5, align 4, !tbaa !32
  %40 = sext i32 %39 to i64
  %41 = getelementptr inbounds [3 x [4 x %struct.VLC]], ptr %38, i64 0, i64 %40
  %42 = load i32, ptr %6, align 4, !tbaa !32
  %43 = sext i32 %42 to i64
  %44 = getelementptr inbounds [4 x %struct.VLC], ptr %41, i64 0, i64 %43
  call void @ff_vlc_free(ptr noundef %44)
  br label %45

45:                                               ; preds = %33
  %46 = load i32, ptr %6, align 4, !tbaa !32
  %47 = add nsw i32 %46, 1
  store i32 %47, ptr %6, align 4, !tbaa !32
  br label %29, !llvm.loop !175

48:                                               ; preds = %32
  br label %49

49:                                               ; preds = %48
  %50 = load i32, ptr %5, align 4, !tbaa !32
  %51 = add nsw i32 %50, 1
  store i32 %51, ptr %5, align 4, !tbaa !32
  br label %24, !llvm.loop !176

52:                                               ; preds = %27
  br label %53

53:                                               ; preds = %52
  %54 = load i32, ptr %3, align 4, !tbaa !32
  %55 = add nsw i32 %54, 1
  store i32 %55, ptr %3, align 4, !tbaa !32
  br label %9, !llvm.loop !177

56:                                               ; preds = %12
  ret void
}