; Function Attrs: cold nounwind optsize uwtable
define internal fastcc void @vp6_decode_free_context(ptr noundef %0) unnamed_addr #0 {
  %2 = tail call i32 @ff_vp56_free_context(ptr noundef %0) #11
  %3 = getelementptr inbounds nuw i8, ptr %0, i64 5240
  %4 = getelementptr inbounds nuw i8, ptr %0, i64 5288
  %5 = getelementptr inbounds nuw i8, ptr %0, i64 5336
  br label %7

6:                                                ; preds = %11
  ret void

7:                                                ; preds = %1, %11
  %8 = phi i1 [ true, %1 ], [ false, %11 ]
  %indvars.iv24 = phi i64 [ 0, %1 ], [ 1, %11 ]
  %9 = getelementptr inbounds nuw [2 x %struct.VLC], ptr %3, i64 0, i64 %indvars.iv24
  tail call void @ff_vlc_free(ptr noundef nonnull %9) #11
  %10 = getelementptr inbounds nuw [2 x %struct.VLC], ptr %4, i64 0, i64 %indvars.iv24
  tail call void @ff_vlc_free(ptr noundef nonnull %10) #11
  br label %.preheader

.preheader:                                       ; preds = %7, %12
  %indvars.iv20 = phi i64 [ 0, %7 ], [ %indvars.iv.next21, %12 ]
  br label %13

11:                                               ; preds = %12
  br i1 %8, label %7, label %6, !llvm.loop !156

12:                                               ; preds = %13
  %indvars.iv.next21 = add nuw nsw i64 %indvars.iv20, 1
  %exitcond23.not = icmp eq i64 %indvars.iv.next21, 3
  br i1 %exitcond23.not, label %11, label %.preheader, !llvm.loop !157

13:                                               ; preds = %.preheader, %13
  %indvars.iv = phi i64 [ 0, %.preheader ], [ %indvars.iv.next, %13 ]
  %14 = getelementptr inbounds nuw [2 x [3 x [4 x %struct.VLC]]], ptr %5, i64 0, i64 %indvars.iv24, i64 %indvars.iv20, i64 %indvars.iv
  tail call void @ff_vlc_free(ptr noundef nonnull %14) #11
  %indvars.iv.next = add nuw nsw i64 %indvars.iv, 1
  %exitcond.not = icmp eq i64 %indvars.iv.next, 4
  br i1 %exitcond.not, label %12, label %13, !llvm.loop !158
}